; Function Attrs: mustprogress nofree norecurse nosync nounwind memory(argmem: write) uwtable
define noundef i32 @_ZN15MarchingSquares14AddEdgeIndicesEhPi(i8 noundef zeroext %0, ptr noundef writeonly captures(none) %1) local_unnamed_addr #6 align 2 {
  %3 = zext i8 %0 to i64
  switch i8 %0, label %.preheader [
    i8 15, label %.loopexit
    i8 0, label %.loopexit
  ]

.preheader:                                       ; preds = %2, %.preheader
  %indvars.iv25 = phi i64 [ %indvars.iv.next26, %.preheader ], [ 0, %2 ]
  %.01521 = phi i32 [ %11, %.preheader ], [ 0, %2 ]
  %4 = getelementptr inbounds nuw [16 x [5 x i32]], ptr @_ZN15MarchingSquares5edgesE, i64 0, i64 %3, i64 %indvars.iv25
  %5 = load i32, ptr %4, align 4
  %6 = getelementptr inbounds nuw i32, ptr %1, i64 %indvars.iv25
  store i32 %5, ptr %6, align 4
  %7 = or disjoint i64 %indvars.iv25, 1
  %8 = getelementptr inbounds nuw [16 x [5 x i32]], ptr @_ZN15MarchingSquares5edgesE, i64 0, i64 %3, i64 %7
  %9 = load i32, ptr %8, align 4
  %10 = getelementptr inbounds nuw i32, ptr %1, i64 %7
  store i32 %9, ptr %10, align 4
  %11 = add nuw nsw i32 %.01521, 1
  %indvars.iv.next26 = add nuw nsw i64 %indvars.iv25, 2
  %12 = getelementptr inbounds nuw [16 x [5 x i32]], ptr @_ZN15MarchingSquares5edgesE, i64 0, i64 %3, i64 %indvars.iv.next26
  %13 = load i32, ptr %12, align 4
  %.not17 = icmp eq i32 %13, -1
  br i1 %.not17, label %.loopexit, label %.preheader, !llvm.loop !8

.loopexit:                                        ; preds = %.preheader, %2, %2
  %.016 = phi i32 [ 0, %2 ], [ 0, %2 ], [ %11, %.preheader ]
  ret i32 %.016
}